target datalayout = "e-m:e-p270:32:32-p271:32:32-p272:64:64-i64:64-i128:128-f80:128-n8:16:32:64-S128"
target triple = "x86_64-pc-linux-gnu"

%struct.fstWriterContext = type { ptr, ptr, ptr, ptr, ptr, ptr, ptr, i64, ptr, ptr, ptr, i32, ptr, i32, i32, i32, i8, i64, i64, i32, i32, i64, i64, i32, i32, i32, i64, i32, double, ptr, ptr, i32, i64, i8, i8, i8, i8, i8, i64, i64, i64, i64, i64, i32, ptr, i32, i8, ptr, ptr, ptr, ptr, i32 }

@stderr = external global ptr, align 8
@.str.15 = private unnamed_addr constant [69 x i8] c"FSTAPI  | Could not realloc() in fstWriterEmitValueChange, exiting.\0A\00", align 1

; Function Attrs: mustprogress nounwind uwtable
define internal noundef i32 @_ZL27fstWriterUint32WithVarint32P16fstWriterContextPjjPKvj(ptr noundef %0, ptr noundef %1, i32 noundef %2, ptr noundef %3, i32 noundef %4) #8 {
  %6 = alloca ptr, align 8
  %7 = alloca ptr, align 8
  %8 = alloca i32, align 4
  %9 = alloca ptr, align 8
  %10 = alloca i32, align 4
  %11 = alloca ptr, align 8
  %12 = alloca ptr, align 8
  %13 = alloca i32, align 4
  %14 = alloca i32, align 4
  store ptr %0, ptr %6, align 8, !tbaa !13
  store ptr %1, ptr %7, align 8, !tbaa !82
  store i32 %2, ptr %8, align 4, !tbaa !11
  store ptr %3, ptr %9, align 8, !tbaa !50
  store i32 %4, ptr %10, align 4, !tbaa !11
  call void @llvm.lifetime.start.p0(i64 8, ptr %11) #15
  %15 = load ptr, ptr %6, align 8, !tbaa !13
  %16 = getelementptr inbounds nuw %struct.fstWriterContext, ptr %15, i32 0, i32 6
  %17 = load ptr, ptr %16, align 8, !tbaa !30
  %18 = load ptr, ptr %6, align 8, !tbaa !13
  %19 = getelementptr inbounds nuw %struct.fstWriterContext, ptr %18, i32 0, i32 23
  %20 = load i32, ptr %19, align 8, !tbaa !55
  %21 = zext i32 %20 to i64
  %22 = getelementptr inbounds nuw i8, ptr %17, i64 %21
  store ptr %22, ptr %11, align 8, !tbaa !6
  call void @llvm.lifetime.start.p0(i64 8, ptr %12) #15
  %23 = load ptr, ptr %11, align 8, !tbaa !6
  store ptr %23, ptr %12, align 8, !tbaa !6
  call void @llvm.lifetime.start.p0(i64 4, ptr %13) #15
  call void @llvm.lifetime.start.p0(i64 4, ptr %14) #15
  %24 = load ptr, ptr %12, align 8, !tbaa !6
  %25 = load ptr, ptr %7, align 8, !tbaa !82
  call void @llvm.memcpy.p0.p0.i64(ptr align 1 %24, ptr align 4 %25, i64 4, i1 false)
  %26 = load ptr, ptr %12, align 8, !tbaa !6
  %27 = getelementptr inbounds i8, ptr %26, i64 4
  store ptr %27, ptr %12, align 8, !tbaa !6
  br label %28

28:                                               ; preds = %32, %5
  %29 = load i32, ptr %8, align 4, !tbaa !11
  %30 = lshr i32 %29, 7
  store i32 %30, ptr %13, align 4, !tbaa !11
  %31 = icmp ne i32 %30, 0
  br i1 %31, label %32, label %41

32:                                               ; preds = %28
  %33 = load i32, ptr %8, align 4, !tbaa !11
  %34 = trunc i32 %33 to i8
  %35 = zext i8 %34 to i32
  %36 = or i32 %35, 128
  %37 = trunc i32 %36 to i8
  %38 = load ptr, ptr %12, align 8, !tbaa !6
  %39 = getelementptr inbounds nuw i8, ptr %38, i32 1
  store ptr %39, ptr %12, align 8, !tbaa !6
  store i8 %37, ptr %38, align 1, !tbaa !34
  %40 = load i32, ptr %13, align 4, !tbaa !11
  store i32 %40, ptr %8, align 4, !tbaa !11
  br label %28, !llvm.loop !133

41:                                               ; preds = %28
  %42 = load i32, ptr %8, align 4, !tbaa !11
  %43 = trunc i32 %42 to i8
  %44 = load ptr, ptr %12, align 8, !tbaa !6
  %45 = getelementptr inbounds nuw i8, ptr %44, i32 1
  store ptr %45, ptr %12, align 8, !tbaa !6
  store i8 %43, ptr %44, align 1, !tbaa !34
  %46 = load ptr, ptr %12, align 8, !tbaa !6
  %47 = load ptr, ptr %9, align 8, !tbaa !50
  %48 = load i32, ptr %10, align 4, !tbaa !11
  %49 = zext i32 %48 to i64
  call void @llvm.memcpy.p0.p0.i64(ptr align 1 %46, ptr align 1 %47, i64 %49, i1 false)
  %50 = load ptr, ptr %12, align 8, !tbaa !6
  %51 = load ptr, ptr %11, align 8, !tbaa !6
  %52 = ptrtoint ptr %50 to i64
  %53 = ptrtoint ptr %51 to i64
  %54 = sub i64 %52, %53
  %55 = load i32, ptr %10, align 4, !tbaa !11
  %56 = zext i32 %55 to i64
  %57 = add nsw i64 %54, %56
  %58 = trunc i64 %57 to i32
  store i32 %58, ptr %14, align 4, !tbaa !11
  %59 = load i32, ptr %14, align 4, !tbaa !11
  call void @llvm.lifetime.end.p0(i64 4, ptr %14) #15
  call void @llvm.lifetime.end.p0(i64 4, ptr %13) #15
  call void @llvm.lifetime.end.p0(i64 8, ptr %12) #15
  call void @llvm.lifetime.end.p0(i64 8, ptr %11) #15
  ret i32 %59
}

; Function Attrs: mustprogress uwtable
define void @fstWriterEmitValueChange(ptr noundef %0, i32 noundef %1, ptr noundef %2) #0 {
  %4 = alloca ptr, align 8
  %5 = alloca i32, align 4
  %6 = alloca ptr, align 8
  %7 = alloca ptr, align 8
  %8 = alloca ptr, align 8
  %9 = alloca i32, align 4
  %10 = alloca i32, align 4
  %11 = alloca i32, align 4
  %12 = alloca ptr, align 8
  store ptr %0, ptr %4, align 8, !tbaa !50
  store i32 %1, ptr %5, align 4, !tbaa !11
  store ptr %2, ptr %6, align 8, !tbaa !50
  call void @llvm.lifetime.start.p0(i64 8, ptr %7) #15
  %13 = load ptr, ptr %4, align 8, !tbaa !50
  store ptr %13, ptr %7, align 8, !tbaa !13
  call void @llvm.lifetime.start.p0(i64 8, ptr %8) #15
  %14 = load ptr, ptr %6, align 8, !tbaa !50
  store ptr %14, ptr %8, align 8, !tbaa !6
  call void @llvm.lifetime.start.p0(i64 4, ptr %9) #15
  call void @llvm.lifetime.start.p0(i64 4, ptr %10) #15
  %15 = load ptr, ptr %7, align 8, !tbaa !13
  %16 = icmp ne ptr %15, null
  br i1 %16, label %17, label %23

17:                                               ; preds = %3
  %18 = load i32, ptr %5, align 4, !tbaa !11
  %19 = load ptr, ptr %7, align 8, !tbaa !13
  %20 = getelementptr inbounds nuw %struct.fstWriterContext, ptr %19, i32 0, i32 13
  %21 = load i32, ptr %20, align 8, !tbaa !56
  %22 = icmp ule i32 %18, %21
  br label %23

23:                                               ; preds = %17, %3
  %24 = phi i1 [ false, %3 ], [ %22, %17 ]
  %25 = xor i1 %24, true
  %26 = xor i1 %25, true
  %27 = zext i1 %26 to i64
  %28 = call i64 @llvm.expect.i64(i64 %27, i64 1)
  %29 = icmp ne i64 %28, 0
  br i1 %29, label %30, label %177

30:                                               ; preds = %23
  call void @llvm.lifetime.start.p0(i64 4, ptr %11) #15
  call void @llvm.lifetime.start.p0(i64 8, ptr %12) #15
  %31 = load ptr, ptr %7, align 8, !tbaa !13
  %32 = getelementptr inbounds nuw %struct.fstWriterContext, ptr %31, i32 0, i32 8
  %33 = load ptr, ptr %32, align 8, !tbaa !58
  %34 = icmp ne ptr %33, null
  %35 = xor i1 %34, true
  %36 = xor i1 %35, true
  %37 = xor i1 %36, true
  %38 = zext i1 %37 to i64
  %39 = call i64 @llvm.expect.i64(i64 %38, i64 0)
  %40 = icmp ne i64 %39, 0
  br i1 %40, label %41, label %48

41:                                               ; preds = %30
  %42 = load ptr, ptr %7, align 8, !tbaa !13
  %43 = getelementptr inbounds nuw %struct.fstWriterContext, ptr %42, i32 0, i32 16
  %44 = load i8, ptr %43, align 4
  %45 = and i8 %44, -2
  %46 = or i8 %45, 1
  store i8 %46, ptr %43, align 4
  %47 = load ptr, ptr %7, align 8, !tbaa !13
  call void @_ZL20fstWriterCreateMmapsP16fstWriterContext(ptr noundef %47)
  br label %48

48:                                               ; preds = %41, %30
  %49 = load i32, ptr %5, align 4, !tbaa !11
  %50 = add i32 %49, -1
  store i32 %50, ptr %5, align 4, !tbaa !11
  %51 = load ptr, ptr %7, align 8, !tbaa !13
  %52 = getelementptr inbounds nuw %struct.fstWriterContext, ptr %51, i32 0, i32 8
  %53 = load ptr, ptr %52, align 8, !tbaa !58
  %54 = load i32, ptr %5, align 4, !tbaa !11
  %55 = mul i32 4, %54
  %56 = zext i32 %55 to i64
  %57 = getelementptr inbounds nuw i32, ptr %53, i64 %56
  store ptr %57, ptr %12, align 8, !tbaa !82
  %58 = load ptr, ptr %12, align 8, !tbaa !82
  %59 = getelementptr inbounds i32, ptr %58, i64 1
  %60 = load i32, ptr %59, align 4, !tbaa !11
  store i32 %60, ptr %10, align 4, !tbaa !11
  %61 = load i32, ptr %10, align 4, !tbaa !11
  %62 = icmp ne i32 %61, 0
  %63 = xor i1 %62, true
  %64 = xor i1 %63, true
  %65 = zext i1 %64 to i64
  %66 = call i64 @llvm.expect.i64(i64 %65, i64 1)
  %67 = icmp ne i64 %66, 0
  br i1 %67, label %68, label %176

68:                                               ; preds = %48
  %69 = load ptr, ptr %7, align 8, !tbaa !13
  %70 = getelementptr inbounds nuw %struct.fstWriterContext, ptr %69, i32 0, i32 16
  %71 = load i8, ptr %70, align 4
  %72 = lshr i8 %71, 1
  %73 = and i8 %72, 1
  %74 = zext i8 %73 to i32
  %75 = icmp ne i32 %74, 0
  %76 = xor i1 %75, true
  %77 = xor i1 %76, true
  %78 = xor i1 %77, true
  %79 = zext i1 %78 to i64
  %80 = call i64 @llvm.expect.i64(i64 %79, i64 1)
  %81 = icmp ne i64 %80, 0
  br i1 %81, label %82, label %162

82:                                               ; preds = %68
  %83 = load ptr, ptr %7, align 8, !tbaa !13
  %84 = getelementptr inbounds nuw %struct.fstWriterContext, ptr %83, i32 0, i32 23
  %85 = load i32, ptr %84, align 8, !tbaa !55
  store i32 %85, ptr %11, align 4, !tbaa !11
  %86 = load i32, ptr %11, align 4, !tbaa !11
  %87 = load i32, ptr %10, align 4, !tbaa !11
  %88 = add i32 %86, %87
  %89 = add i32 %88, 10
  %90 = load ptr, ptr %7, align 8, !tbaa !13
  %91 = getelementptr inbounds nuw %struct.fstWriterContext, ptr %90, i32 0, i32 24
  %92 = load i32, ptr %91, align 4, !tbaa !29
  %93 = icmp ugt i32 %89, %92
  %94 = xor i1 %93, true
  %95 = xor i1 %94, true
  %96 = zext i1 %95 to i64
  %97 = call i64 @llvm.expect.i64(i64 %96, i64 0)
  %98 = icmp ne i64 %97, 0
  br i1 %98, label %99, label %136

99:                                               ; preds = %82
  %100 = load ptr, ptr %7, align 8, !tbaa !13
  %101 = getelementptr inbounds nuw %struct.fstWriterContext, ptr %100, i32 0, i32 41
  %102 = load i64, ptr %101, align 8, !tbaa !28
  %103 = load i32, ptr %10, align 4, !tbaa !11
  %104 = sext i32 %103 to i64
  %105 = add i64 %102, %104
  %106 = load ptr, ptr %7, align 8, !tbaa !13
  %107 = getelementptr inbounds nuw %struct.fstWriterContext, ptr %106, i32 0, i32 24
  %108 = load i32, ptr %107, align 4, !tbaa !29
  %109 = zext i32 %108 to i64
  %110 = add i64 %109, %105
  %111 = trunc i64 %110 to i32
  store i32 %111, ptr %107, align 4, !tbaa !29
  %112 = load ptr, ptr %7, align 8, !tbaa !13
  %113 = getelementptr inbounds nuw %struct.fstWriterContext, ptr %112, i32 0, i32 6
  %114 = load ptr, ptr %113, align 8, !tbaa !30
  %115 = load ptr, ptr %7, align 8, !tbaa !13
  %116 = getelementptr inbounds nuw %struct.fstWriterContext, ptr %115, i32 0, i32 24
  %117 = load i32, ptr %116, align 4, !tbaa !29
  %118 = zext i32 %117 to i64
  %119 = call ptr @realloc(ptr noundef %114, i64 noundef %118) #20
  %120 = load ptr, ptr %7, align 8, !tbaa !13
  %121 = getelementptr inbounds nuw %struct.fstWriterContext, ptr %120, i32 0, i32 6
  store ptr %119, ptr %121, align 8, !tbaa !30
  %122 = load ptr, ptr %7, align 8, !tbaa !13
  %123 = getelementptr inbounds nuw %struct.fstWriterContext, ptr %122, i32 0, i32 6
  %124 = load ptr, ptr %123, align 8, !tbaa !30
  %125 = icmp ne ptr %124, null
  %126 = xor i1 %125, true
  %127 = xor i1 %126, true
  %128 = xor i1 %127, true
  %129 = zext i1 %128 to i64
  %130 = call i64 @llvm.expect.i64(i64 %129, i64 0)
  %131 = icmp ne i64 %130, 0
  br i1 %131, label %132, label %135

132:                                              ; preds = %99
  %133 = load ptr, ptr @stderr, align 8, !tbaa !33
  %134 = call i32 (ptr, ptr, ...) @fprintf(ptr noundef %133, ptr noundef @.str.15) #15
  call void @exit(i32 noundef 255) #21
  unreachable

135:                                              ; preds = %99
  br label %136

136:                                              ; preds = %135, %82
  %137 = load ptr, ptr %7, align 8, !tbaa !13
  %138 = load ptr, ptr %12, align 8, !tbaa !82
  %139 = getelementptr inbounds i32, ptr %138, i64 2
  %140 = load ptr, ptr %7, align 8, !tbaa !13
  %141 = getelementptr inbounds nuw %struct.fstWriterContext, ptr %140, i32 0, i32 20
  %142 = load i32, ptr %141, align 4, !tbaa !51
  %143 = load ptr, ptr %12, align 8, !tbaa !82
  %144 = getelementptr inbounds i32, ptr %143, i64 3
  %145 = load i32, ptr %144, align 4, !tbaa !11
  %146 = sub i32 %142, %145
  %147 = load ptr, ptr %8, align 8, !tbaa !6
  %148 = load i32, ptr %10, align 4, !tbaa !11
  %149 = call noundef i32 @_ZL27fstWriterUint32WithVarint32P16fstWriterContextPjjPKvj(ptr noundef %137, ptr noundef %139, i32 noundef %146, ptr noundef %147, i32 noundef %148)
  %150 = load ptr, ptr %7, align 8, !tbaa !13
  %151 = getelementptr inbounds nuw %struct.fstWriterContext, ptr %150, i32 0, i32 23
  %152 = load i32, ptr %151, align 8, !tbaa !55
  %153 = add i32 %152, %149
  store i32 %153, ptr %151, align 8, !tbaa !55
  %154 = load ptr, ptr %7, align 8, !tbaa !13
  %155 = getelementptr inbounds nuw %struct.fstWriterContext, ptr %154, i32 0, i32 20
  %156 = load i32, ptr %155, align 4, !tbaa !51
  %157 = load ptr, ptr %12, align 8, !tbaa !82
  %158 = getelementptr inbounds i32, ptr %157, i64 3
  store i32 %156, ptr %158, align 4, !tbaa !11
  %159 = load i32, ptr %11, align 4, !tbaa !11
  %160 = load ptr, ptr %12, align 8, !tbaa !82
  %161 = getelementptr inbounds i32, ptr %160, i64 2
  store i32 %159, ptr %161, align 4, !tbaa !11
  br label %175

162:                                              ; preds = %68
  %163 = load ptr, ptr %12, align 8, !tbaa !82
  %164 = getelementptr inbounds i32, ptr %163, i64 0
  %165 = load i32, ptr %164, align 4, !tbaa !11
  store i32 %165, ptr %9, align 4, !tbaa !11
  %166 = load ptr, ptr %7, align 8, !tbaa !13
  %167 = getelementptr inbounds nuw %struct.fstWriterContext, ptr %166, i32 0, i32 9
  %168 = load ptr, ptr %167, align 8, !tbaa !57
  %169 = load i32, ptr %9, align 4, !tbaa !11
  %170 = zext i32 %169 to i64
  %171 = getelementptr inbounds nuw i8, ptr %168, i64 %170
  %172 = load ptr, ptr %8, align 8, !tbaa !6
  %173 = load i32, ptr %10, align 4, !tbaa !11
  %174 = sext i32 %173 to i64
  call void @llvm.memcpy.p0.p0.i64(ptr align 1 %171, ptr align 1 %172, i64 %174, i1 false)
  br label %175

175:                                              ; preds = %162, %136
  br label %176

176:                                              ; preds = %175, %48
  call void @llvm.lifetime.end.p0(i64 8, ptr %12) #15
  call void @llvm.lifetime.end.p0(i64 4, ptr %11) #15
  br label %177

177:                                              ; preds = %176, %23
  call void @llvm.lifetime.end.p0(i64 4, ptr %10) #15
  call void @llvm.lifetime.end.p0(i64 4, ptr %9) #15
  call void @llvm.lifetime.end.p0(i64 8, ptr %8) #15
  call void @llvm.lifetime.end.p0(i64 8, ptr %7) #15
  ret void
}