; Function Attrs: mustprogress nounwind uwtable
define void @fstWriterEmitValueChange(ptr noundef captures(address_is_null) %0, i32 noundef %1, ptr noundef readonly captures(none) %2) local_unnamed_addr #0 {
  %.not = icmp eq ptr %0, null
  br i1 %.not, label %.critedge, label %4, !prof !85

4:                                                ; preds = %3
  %5 = getelementptr inbounds nuw i8, ptr %0, i64 104
  %6 = load i32, ptr %5, align 8, !tbaa !48
  %.not48 = icmp ugt i32 %1, %6
  br i1 %.not48, label %.critedge, label %7, !prof !85

7:                                                ; preds = %4
  %8 = getelementptr inbounds nuw i8, ptr %0, i64 64
  %9 = load ptr, ptr %8, align 8, !tbaa !50
  %.not42 = icmp eq ptr %9, null
  br i1 %.not42, label %10, label %14, !prof !85

10:                                               ; preds = %7
  %11 = getelementptr inbounds nuw i8, ptr %0, i64 116
  %12 = load i8, ptr %11, align 4
  %13 = or i8 %12, 1
  store i8 %13, ptr %11, align 4
  tail call fastcc void @_ZL20fstWriterCreateMmapsP16fstWriterContext(ptr noundef nonnull %0)
  %.pre = load ptr, ptr %8, align 8, !tbaa !50
  br label %14

14:                                               ; preds = %10, %7
  %15 = phi ptr [ %.pre, %10 ], [ %9, %7 ]
  %16 = shl i32 %1, 2
  %17 = add i32 %16, -4
  %18 = zext i32 %17 to i64
  %19 = getelementptr inbounds nuw i32, ptr %15, i64 %18
  %20 = getelementptr inbounds nuw i8, ptr %19, i64 4
  %21 = load i32, ptr %20, align 4, !tbaa !51
  %.not43 = icmp eq i32 %21, 0
  br i1 %.not43, label %.critedge, label %22, !prof !85

22:                                               ; preds = %14
  %23 = getelementptr inbounds nuw i8, ptr %0, i64 116
  %24 = load i8, ptr %23, align 4
  %25 = and i8 %24, 2
  %.not44 = icmp eq i8 %25, 0
  br i1 %.not44, label %26, label %72, !prof !47

26:                                               ; preds = %22
  %27 = getelementptr inbounds nuw i8, ptr %0, i64 160
  %28 = load i32, ptr %27, align 8, !tbaa !46
  %29 = add i32 %21, 10
  %30 = add i32 %29, %28
  %31 = getelementptr inbounds nuw i8, ptr %0, i64 164
  %32 = load i32, ptr %31, align 4, !tbaa !33
  %33 = icmp ugt i32 %30, %32
  br i1 %33, label %34, label %._crit_edge, !prof !85

._crit_edge:                                      ; preds = %26
  %.phi.trans.insert = getelementptr i8, ptr %0, i64 48
  %.val.pre = load ptr, ptr %.phi.trans.insert, align 8, !tbaa !34
  br label %47

34:                                               ; preds = %26
  %35 = getelementptr inbounds nuw i8, ptr %0, i64 264
  %36 = load i64, ptr %35, align 8, !tbaa !24
  %37 = trunc i64 %36 to i32
  %38 = add i32 %32, %21
  %39 = add i32 %38, %37
  store i32 %39, ptr %31, align 4, !tbaa !33
  %40 = getelementptr inbounds nuw i8, ptr %0, i64 48
  %41 = load ptr, ptr %40, align 8, !tbaa !34
  %42 = zext i32 %39 to i64
  %43 = tail call ptr @realloc(ptr noundef %41, i64 noundef %42) #45
  store ptr %43, ptr %40, align 8, !tbaa !34
  %.not45 = icmp eq ptr %43, null
  br i1 %.not45, label %44, label %._crit_edge52, !prof !85

._crit_edge52:                                    ; preds = %34
  %.val46.pre = load i32, ptr %27, align 8, !tbaa !46
  br label %47

44:                                               ; preds = %34
  %45 = load ptr, ptr @stderr, align 8, !tbaa !41
  %46 = tail call i64 @fwrite(ptr nonnull @.str.15, i64 68, i64 1, ptr %45) #44
  tail call void @exit(i32 noundef 255) #46
  unreachable

47:                                               ; preds = %._crit_edge52, %._crit_edge
  %.val46 = phi i32 [ %28, %._crit_edge ], [ %.val46.pre, %._crit_edge52 ]
  %.val = phi ptr [ %.val.pre, %._crit_edge ], [ %43, %._crit_edge52 ]
  %48 = getelementptr inbounds nuw i8, ptr %19, i64 8
  %49 = getelementptr inbounds nuw i8, ptr %0, i64 140
  %50 = load i32, ptr %49, align 4, !tbaa !42
  %51 = getelementptr inbounds nuw i8, ptr %19, i64 12
  %52 = load i32, ptr %51, align 4, !tbaa !51
  %53 = sub i32 %50, %52
  %.val47 = load i32, ptr %48, align 4
  %54 = zext i32 %.val46 to i64
  %55 = getelementptr inbounds nuw i8, ptr %.val, i64 %54
  store i32 %.val47, ptr %55, align 1
  %56 = getelementptr inbounds nuw i8, ptr %55, i64 4
  %.not1.i = icmp ult i32 %53, 128
  br i1 %.not1.i, label %_ZL27fstWriterUint32WithVarint32P16fstWriterContextPjjPKvj.exit, label %.lr.ph.i

.lr.ph.i:                                         ; preds = %47, %.lr.ph.i
  %.03.i = phi i32 [ %57, %.lr.ph.i ], [ %53, %47 ]
  %.0182.i = phi ptr [ %60, %.lr.ph.i ], [ %56, %47 ]
  %57 = lshr i32 %.03.i, 7
  %58 = trunc i32 %.03.i to i8
  %59 = or i8 %58, -128
  %60 = getelementptr inbounds nuw i8, ptr %.0182.i, i64 1
  store i8 %59, ptr %.0182.i, align 1, !tbaa !6
  %.not.i = icmp ult i32 %.03.i, 16384
  br i1 %.not.i, label %_ZL27fstWriterUint32WithVarint32P16fstWriterContextPjjPKvj.exit, label %.lr.ph.i, !llvm.loop !86

_ZL27fstWriterUint32WithVarint32P16fstWriterContextPjjPKvj.exit: ; preds = %.lr.ph.i, %47
  %.018.lcssa.i = phi ptr [ %56, %47 ], [ %60, %.lr.ph.i ]
  %.0.lcssa.i = phi i32 [ %53, %47 ], [ %57, %.lr.ph.i ]
  %61 = trunc nuw i32 %.0.lcssa.i to i8
  %62 = getelementptr inbounds nuw i8, ptr %.018.lcssa.i, i64 1
  store i8 %61, ptr %.018.lcssa.i, align 1, !tbaa !6
  %63 = zext i32 %21 to i64
  tail call void @llvm.memcpy.p0.p0.i64(ptr noundef nonnull align 1 dereferenceable(1) %62, ptr noundef nonnull readonly align 1 dereferenceable(1) %2, i64 %63, i1 false)
  %64 = ptrtoint ptr %62 to i64
  %65 = ptrtoint ptr %55 to i64
  %66 = sub i64 %64, %65
  %67 = trunc i64 %66 to i32
  %68 = add i32 %21, %67
  %69 = load i32, ptr %27, align 8, !tbaa !46
  %70 = add i32 %68, %69
  store i32 %70, ptr %27, align 8, !tbaa !46
  %71 = load i32, ptr %49, align 4, !tbaa !42
  store i32 %71, ptr %51, align 4, !tbaa !51
  store i32 %28, ptr %48, align 4, !tbaa !51
  br label %.critedge

72:                                               ; preds = %22
  %73 = load i32, ptr %19, align 4, !tbaa !51
  %74 = getelementptr inbounds nuw i8, ptr %0, i64 72
  %75 = load ptr, ptr %74, align 8, !tbaa !49
  %76 = zext i32 %73 to i64
  %77 = getelementptr inbounds nuw i8, ptr %75, i64 %76
  %78 = sext i32 %21 to i64
  tail call void @llvm.memcpy.p0.p0.i64(ptr align 1 %77, ptr align 1 %2, i64 %78, i1 false)
  br label %.critedge

.critedge:                                        ; preds = %3, %14, %72, %_ZL27fstWriterUint32WithVarint32P16fstWriterContextPjjPKvj.exit, %4
  ret void
}